; Function Attrs: inlinehint mustprogress optsize uwtable
define internal noundef ptr @"_ZZN8nanobind6detail11func_createILb0ELb1EZL27nanobind_init_test_eval_extRNS_7module_EE3$_6NS_4dictEJETpTnmJEJNS_5scopeENS_4nameEEEEP7_objectOT1_PFT2_DpT3_ESt16integer_sequenceImJXspT4_EEEDpRKT5_ENUlPvPS9_PhNS_9rv_policyEPNS0_12cleanup_listEE_8__invokeESN_SO_SP_SQ_SS_"(ptr readnone captures(none) %0, ptr readnone captures(none) %1, ptr readnone captures(none) %2, i32 %3, ptr readnone captures(none) %4) #9 align 2 personality ptr @__gxx_personality_v0 {
  %6 = alloca i32, align 4
  %7 = alloca %"class.nanobind::detail::accessor.17", align 8
  %8 = alloca %"class.nanobind::dict", align 8
  call void @llvm.lifetime.start.p0(i64 8, ptr nonnull %8) #13
  tail call void @llvm.experimental.noalias.scope.decl(metadata !148)
  tail call void @llvm.experimental.noalias.scope.decl(metadata !151)
  %9 = tail call ptr @PyEval_GetGlobals() #12, !noalias !154
  %.not.i.i = icmp eq ptr %9, null
  br i1 %.not.i.i, label %10, label %11

10:                                               ; preds = %5
  tail call void (ptr, ...) @_ZN8nanobind6detail5raiseEPKcz(ptr noundef nonnull @.str.22) #16, !noalias !154
  unreachable

11:                                               ; preds = %5
  store ptr %9, ptr %8, align 8, !alias.scope !154
  %12 = load i64, ptr %9, align 8, !tbaa !18, !noalias !154
  %13 = add nsw i64 %12, 1
  store i64 %13, ptr %9, align 8, !tbaa !18, !noalias !154
  call void @llvm.lifetime.start.p0(i64 4, ptr nonnull %6) #13, !noalias !148
  store i32 123, ptr %6, align 4, !tbaa !80, !noalias !148
  call void @llvm.lifetime.start.p0(i64 24, ptr nonnull %7) #13, !noalias !148
  store ptr %9, ptr %7, align 8, !tbaa !43, !alias.scope !155, !noalias !148
  %14 = getelementptr inbounds nuw i8, ptr %7, i64 8
  store ptr null, ptr %14, align 8, !tbaa !48, !alias.scope !155, !noalias !148
  %15 = getelementptr inbounds nuw i8, ptr %7, i64 16
  store ptr @.str.23, ptr %15, align 8, !tbaa !49, !alias.scope !155, !noalias !148
  %16 = invoke noundef nonnull align 8 dereferenceable(24) ptr @_ZN8nanobind6detail8accessorINS0_8str_itemEEaSIiEERS3_OT_(ptr noundef nonnull align 8 dereferenceable(24) %7, ptr noundef nonnull align 4 dereferenceable(4) %6) #12
          to label %"_ZZL27nanobind_init_test_eval_extRN8nanobind7module_EENK3$_6clEv.exit" unwind label %17, !noalias !148

17:                                               ; preds = %11
  %18 = landingpad { ptr, i32 }
          cleanup
  call void @_ZN8nanobind6detail8accessorINS0_8str_itemEED2Ev(ptr noundef nonnull align 8 dereferenceable(24) %7) #14, !noalias !148
  call void @llvm.lifetime.end.p0(i64 24, ptr nonnull %7) #13, !noalias !148
  call void @llvm.lifetime.end.p0(i64 4, ptr nonnull %6) #13, !noalias !148
  %19 = call noundef nonnull align 8 dereferenceable(8) ptr @_ZNKR8nanobind6handle7dec_refEv(ptr noundef nonnull align 8 dereferenceable(8) %8) #14
  resume { ptr, i32 } %18

"_ZZL27nanobind_init_test_eval_extRN8nanobind7module_EENK3$_6clEv.exit": ; preds = %11
  call void @_ZN8nanobind6detail8accessorINS0_8str_itemEED2Ev(ptr noundef nonnull align 8 dereferenceable(24) %7) #14, !noalias !148
  call void @llvm.lifetime.end.p0(i64 24, ptr nonnull %7) #13, !noalias !148
  call void @llvm.lifetime.end.p0(i64 4, ptr nonnull %6) #13, !noalias !148
  %20 = load ptr, ptr %8, align 8, !tbaa !24
  store ptr null, ptr %8, align 8, !tbaa !24
  %21 = call noundef nonnull align 8 dereferenceable(8) ptr @_ZNKR8nanobind6handle7dec_refEv(ptr noundef nonnull align 8 dereferenceable(8) %8) #14
  call void @llvm.lifetime.end.p0(i64 8, ptr nonnull %8) #13
  ret ptr %20
}